ccopy_reg
_reconstructor
p0
(ckeras_preprocessing.text
Tokenizer
p1
c__builtin__
object
p2
Ntp3
Rp4
(dp5
S'lower'
p6
I01
sS'word_index'
p7
(dp8
S'a'
p9
I2
sS'c'
p10
I20
sS'e'
p11
I5
sS'd'
p12
I6
sS'g'
p13
I3
sS'f'
p14
I14
sS'i'
p15
I8
sS'h'
p16
I17
sS'k'
p17
I9
sS'm'
p18
I18
sS'l'
p19
I1
sS'n'
p20
I13
sS'q'
p21
I15
sS'p'
p22
I12
sS's'
p23
I7
sS'r'
p24
I11
sS't'
p25
I10
sS'w'
p26
I19
sS'v'
p27
I4
sS'y'
p28
I16
sS'x'
p29
I21
ssS'oov_token'
p30
NsS'char_level'
p31
I00
sS'word_counts'
p32
ccollections
OrderedDict
p33
((lp34
(lp35
g14
aI48484
aa(lp36
g12
aI70514
aa(lp37
g28
aI42100
aa(lp38
g21
aI44332
aa(lp39
g25
aI64036
aa(lp40
g27
aI83027
aa(lp41
g9
aI98174
aa(lp42
g20
aI50621
aa(lp43
g13
aI84721
aa(lp44
g19
aI110736
aa(lp45
g24
aI60247
aa(lp46
g15
aI68659
aa(lp47
g11
aI80902
aa(lp48
g23
aI70047
aa(lp49
g16
aI27607
aa(lp50
g17
aI67616
aa(lp51
g29
aI7776
aa(lp52
g26
aI16766
aa(lp53
g10
aI14475
aa(lp54
g22
aI53607
aa(lp55
g18
aI18871
aatp56
Rp57
sS'split'
p58
S' '
p59
sS'filters'
p60
S'!"#$%&()*+,-./:;<=>?@[\\]^_`{|}~\t\n'
p61
sS'word_docs'
p62
ccollections
defaultdict
p63
(c__builtin__
int
p64
tp65
Rp66
g9
I5506
sg10
I4046
sg11
I5506
sg12
I5505
sg13
I5481
sg14
I5420
sg15
I5485
sg16
I5123
sg17
I5454
sg18
I3717
sg19
I5524
sg20
I5415
sg21
I5423
sg22
I5384
sg23
I5502
sg24
I5481
sg25
I5478
sg26
I4515
sg27
I5507
sg28
I5338
sg29
I1654
ssS'index_docs'
p67
g63
(g64
tp68
Rp69
I1
I5524
sI2
I5506
sI3
I5481
sI4
I5507
sI5
I5506
sI6
I5505
sI7
I5502
sI8
I5485
sI9
I5454
sI10
I5478
sI11
I5481
sI12
I5384
sI13
I5415
sI14
I5420
sI15
I5423
sI16
I5338
sI17
I5123
sI18
I3717
sI19
I4515
sI20
I4046
sI21
I1654
ssS'index_word'
p70
(dp71
I1
g19
sI2
g9
sI3
g13
sI4
g27
sI5
g11
sI6
g12
sI7
g23
sI8
g15
sI9
g17
sI10
g25
sI11
g24
sI12
g22
sI13
g20
sI14
g14
sI15
g21
sI16
g28
sI17
g16
sI18
g18
sI19
g26
sI20
g10
sI21
g29
ssS'document_count'
p72
I5534
sS'num_words'
p73
Nsb.