ccopy_reg
_reconstructor
p0
(ckeras_preprocessing.text
Tokenizer
p1
c__builtin__
object
p2
Ntp3
Rp4
(dp5
S'lower'
p6
I01
sS'word_index'
p7
(dp8
S'b'
p9
I7
sS'e'
p10
I2
sS'g'
p11
I6
sS'i'
p12
I8
sS'h'
p13
I1
sS'l'
p14
I3
sS's'
p15
I5
sS't'
p16
I4
ssS'oov_token'
p17
NsS'char_level'
p18
I01
sS'word_counts'
p19
ccollections
OrderedDict
p20
((lp21
(lp22
g14
aI227021
aa(lp23
g10
aI257733
aa(lp24
g15
aI97716
aa(lp25
g13
aI408663
aa(lp26
g16
aI133522
aa(lp27
g11
aI46275
aa(lp28
g9
aI12176
aa(lp29
g12
aI212
aatp30
Rp31
sS'split'
p32
S' '
p33
sS'filters'
p34
S'!"#$%&()*+,-./:;<=>?@[\\]^_`{|}~\t\n'
p35
sS'word_docs'
p36
ccollections
defaultdict
p37
(c__builtin__
int
p38
tp39
Rp40
g9
I3248
sg10
I4572
sg11
I4448
sg12
I38
sg13
I5164
sg14
I5534
sg15
I5418
sg16
I5488
ssS'index_docs'
p41
g37
(g38
tp42
Rp43
I1
I5164
sI2
I4572
sI3
I5534
sI4
I5488
sI5
I5418
sI6
I4448
sI7
I3248
sI8
I38
ssS'index_word'
p44
(dp45
I1
g13
sI2
g10
sI3
g14
sI4
g16
sI5
g15
sI6
g11
sI7
g9
sI8
g12
ssS'document_count'
p46
I5534
sS'num_words'
p47
Nsb.